target datalayout = "e-m:e-p270:32:32-p271:32:32-p272:64:64-i64:64-i128:128-f80:128-n8:16:32:64-S128"
target triple = "x86_64-pc-linux-gnu"

%struct.AVComplexFloat = type { float, float }

; Function Attrs: nounwind uwtable
define internal void @ff_tx_fft4_ns_float_c(ptr noundef %0, ptr noundef %1, ptr noundef %2, i64 noundef %3) #4 {
  %5 = alloca ptr, align 8
  %6 = alloca ptr, align 8
  %7 = alloca ptr, align 8
  %8 = alloca i64, align 8
  %9 = alloca ptr, align 8
  %10 = alloca ptr, align 8
  %11 = alloca float, align 4
  %12 = alloca float, align 4
  %13 = alloca float, align 4
  %14 = alloca float, align 4
  %15 = alloca float, align 4
  %16 = alloca float, align 4
  %17 = alloca float, align 4
  %18 = alloca float, align 4
  store ptr %0, ptr %5, align 8, !tbaa !17
  store ptr %1, ptr %6, align 8, !tbaa !8
  store ptr %2, ptr %7, align 8, !tbaa !8
  store i64 %3, ptr %8, align 8, !tbaa !30
  call void @llvm.lifetime.start.p0(i64 8, ptr %9) #10
  %19 = load ptr, ptr %7, align 8, !tbaa !8
  store ptr %19, ptr %9, align 8, !tbaa !60
  call void @llvm.lifetime.start.p0(i64 8, ptr %10) #10
  %20 = load ptr, ptr %6, align 8, !tbaa !8
  store ptr %20, ptr %10, align 8, !tbaa !60
  call void @llvm.lifetime.start.p0(i64 4, ptr %11) #10
  call void @llvm.lifetime.start.p0(i64 4, ptr %12) #10
  call void @llvm.lifetime.start.p0(i64 4, ptr %13) #10
  call void @llvm.lifetime.start.p0(i64 4, ptr %14) #10
  call void @llvm.lifetime.start.p0(i64 4, ptr %15) #10
  call void @llvm.lifetime.start.p0(i64 4, ptr %16) #10
  call void @llvm.lifetime.start.p0(i64 4, ptr %17) #10
  call void @llvm.lifetime.start.p0(i64 4, ptr %18) #10
  br label %21

21:                                               ; preds = %4
  %22 = load ptr, ptr %9, align 8, !tbaa !60
  %23 = getelementptr inbounds %struct.AVComplexFloat, ptr %22, i64 0
  %24 = getelementptr inbounds nuw %struct.AVComplexFloat, ptr %23, i32 0, i32 0
  %25 = load float, ptr %24, align 4, !tbaa !32
  %26 = load ptr, ptr %9, align 8, !tbaa !60
  %27 = getelementptr inbounds %struct.AVComplexFloat, ptr %26, i64 1
  %28 = getelementptr inbounds nuw %struct.AVComplexFloat, ptr %27, i32 0, i32 0
  %29 = load float, ptr %28, align 4, !tbaa !32
  %30 = fsub nsz float %25, %29
  store float %30, ptr %13, align 4, !tbaa !36
  %31 = load ptr, ptr %9, align 8, !tbaa !60
  %32 = getelementptr inbounds %struct.AVComplexFloat, ptr %31, i64 0
  %33 = getelementptr inbounds nuw %struct.AVComplexFloat, ptr %32, i32 0, i32 0
  %34 = load float, ptr %33, align 4, !tbaa !32
  %35 = load ptr, ptr %9, align 8, !tbaa !60
  %36 = getelementptr inbounds %struct.AVComplexFloat, ptr %35, i64 1
  %37 = getelementptr inbounds nuw %struct.AVComplexFloat, ptr %36, i32 0, i32 0
  %38 = load float, ptr %37, align 4, !tbaa !32
  %39 = fadd nsz float %34, %38
  store float %39, ptr %11, align 4, !tbaa !36
  br label %40

40:                                               ; preds = %21
  br label %41

41:                                               ; preds = %40
  br label %42

42:                                               ; preds = %41
  %43 = load ptr, ptr %9, align 8, !tbaa !60
  %44 = getelementptr inbounds %struct.AVComplexFloat, ptr %43, i64 3
  %45 = getelementptr inbounds nuw %struct.AVComplexFloat, ptr %44, i32 0, i32 0
  %46 = load float, ptr %45, align 4, !tbaa !32
  %47 = load ptr, ptr %9, align 8, !tbaa !60
  %48 = getelementptr inbounds %struct.AVComplexFloat, ptr %47, i64 2
  %49 = getelementptr inbounds nuw %struct.AVComplexFloat, ptr %48, i32 0, i32 0
  %50 = load float, ptr %49, align 4, !tbaa !32
  %51 = fsub nsz float %46, %50
  store float %51, ptr %18, align 4, !tbaa !36
  %52 = load ptr, ptr %9, align 8, !tbaa !60
  %53 = getelementptr inbounds %struct.AVComplexFloat, ptr %52, i64 3
  %54 = getelementptr inbounds nuw %struct.AVComplexFloat, ptr %53, i32 0, i32 0
  %55 = load float, ptr %54, align 4, !tbaa !32
  %56 = load ptr, ptr %9, align 8, !tbaa !60
  %57 = getelementptr inbounds %struct.AVComplexFloat, ptr %56, i64 2
  %58 = getelementptr inbounds nuw %struct.AVComplexFloat, ptr %57, i32 0, i32 0
  %59 = load float, ptr %58, align 4, !tbaa !32
  %60 = fadd nsz float %55, %59
  store float %60, ptr %16, align 4, !tbaa !36
  br label %61

61:                                               ; preds = %42
  br label %62

62:                                               ; preds = %61
  br label %63

63:                                               ; preds = %62
  %64 = load float, ptr %11, align 4, !tbaa !36
  %65 = load float, ptr %16, align 4, !tbaa !36
  %66 = fsub nsz float %64, %65
  %67 = load ptr, ptr %10, align 8, !tbaa !60
  %68 = getelementptr inbounds %struct.AVComplexFloat, ptr %67, i64 2
  %69 = getelementptr inbounds nuw %struct.AVComplexFloat, ptr %68, i32 0, i32 0
  store float %66, ptr %69, align 4, !tbaa !32
  %70 = load float, ptr %11, align 4, !tbaa !36
  %71 = load float, ptr %16, align 4, !tbaa !36
  %72 = fadd nsz float %70, %71
  %73 = load ptr, ptr %10, align 8, !tbaa !60
  %74 = getelementptr inbounds %struct.AVComplexFloat, ptr %73, i64 0
  %75 = getelementptr inbounds nuw %struct.AVComplexFloat, ptr %74, i32 0, i32 0
  store float %72, ptr %75, align 4, !tbaa !32
  br label %76

76:                                               ; preds = %63
  br label %77

77:                                               ; preds = %76
  br label %78

78:                                               ; preds = %77
  %79 = load ptr, ptr %9, align 8, !tbaa !60
  %80 = getelementptr inbounds %struct.AVComplexFloat, ptr %79, i64 0
  %81 = getelementptr inbounds nuw %struct.AVComplexFloat, ptr %80, i32 0, i32 1
  %82 = load float, ptr %81, align 4, !tbaa !34
  %83 = load ptr, ptr %9, align 8, !tbaa !60
  %84 = getelementptr inbounds %struct.AVComplexFloat, ptr %83, i64 1
  %85 = getelementptr inbounds nuw %struct.AVComplexFloat, ptr %84, i32 0, i32 1
  %86 = load float, ptr %85, align 4, !tbaa !34
  %87 = fsub nsz float %82, %86
  store float %87, ptr %14, align 4, !tbaa !36
  %88 = load ptr, ptr %9, align 8, !tbaa !60
  %89 = getelementptr inbounds %struct.AVComplexFloat, ptr %88, i64 0
  %90 = getelementptr inbounds nuw %struct.AVComplexFloat, ptr %89, i32 0, i32 1
  %91 = load float, ptr %90, align 4, !tbaa !34
  %92 = load ptr, ptr %9, align 8, !tbaa !60
  %93 = getelementptr inbounds %struct.AVComplexFloat, ptr %92, i64 1
  %94 = getelementptr inbounds nuw %struct.AVComplexFloat, ptr %93, i32 0, i32 1
  %95 = load float, ptr %94, align 4, !tbaa !34
  %96 = fadd nsz float %91, %95
  store float %96, ptr %12, align 4, !tbaa !36
  br label %97

97:                                               ; preds = %78
  br label %98

98:                                               ; preds = %97
  br label %99

99:                                               ; preds = %98
  %100 = load ptr, ptr %9, align 8, !tbaa !60
  %101 = getelementptr inbounds %struct.AVComplexFloat, ptr %100, i64 2
  %102 = getelementptr inbounds nuw %struct.AVComplexFloat, ptr %101, i32 0, i32 1
  %103 = load float, ptr %102, align 4, !tbaa !34
  %104 = load ptr, ptr %9, align 8, !tbaa !60
  %105 = getelementptr inbounds %struct.AVComplexFloat, ptr %104, i64 3
  %106 = getelementptr inbounds nuw %struct.AVComplexFloat, ptr %105, i32 0, i32 1
  %107 = load float, ptr %106, align 4, !tbaa !34
  %108 = fsub nsz float %103, %107
  store float %108, ptr %17, align 4, !tbaa !36
  %109 = load ptr, ptr %9, align 8, !tbaa !60
  %110 = getelementptr inbounds %struct.AVComplexFloat, ptr %109, i64 2
  %111 = getelementptr inbounds nuw %struct.AVComplexFloat, ptr %110, i32 0, i32 1
  %112 = load float, ptr %111, align 4, !tbaa !34
  %113 = load ptr, ptr %9, align 8, !tbaa !60
  %114 = getelementptr inbounds %struct.AVComplexFloat, ptr %113, i64 3
  %115 = getelementptr inbounds nuw %struct.AVComplexFloat, ptr %114, i32 0, i32 1
  %116 = load float, ptr %115, align 4, !tbaa !34
  %117 = fadd nsz float %112, %116
  store float %117, ptr %15, align 4, !tbaa !36
  br label %118

118:                                              ; preds = %99
  br label %119

119:                                              ; preds = %118
  br label %120

120:                                              ; preds = %119
  %121 = load float, ptr %14, align 4, !tbaa !36
  %122 = load float, ptr %18, align 4, !tbaa !36
  %123 = fsub nsz float %121, %122
  %124 = load ptr, ptr %10, align 8, !tbaa !60
  %125 = getelementptr inbounds %struct.AVComplexFloat, ptr %124, i64 3
  %126 = getelementptr inbounds nuw %struct.AVComplexFloat, ptr %125, i32 0, i32 1
  store float %123, ptr %126, align 4, !tbaa !34
  %127 = load float, ptr %14, align 4, !tbaa !36
  %128 = load float, ptr %18, align 4, !tbaa !36
  %129 = fadd nsz float %127, %128
  %130 = load ptr, ptr %10, align 8, !tbaa !60
  %131 = getelementptr inbounds %struct.AVComplexFloat, ptr %130, i64 1
  %132 = getelementptr inbounds nuw %struct.AVComplexFloat, ptr %131, i32 0, i32 1
  store float %129, ptr %132, align 4, !tbaa !34
  br label %133

133:                                              ; preds = %120
  br label %134

134:                                              ; preds = %133
  br label %135

135:                                              ; preds = %134
  %136 = load float, ptr %13, align 4, !tbaa !36
  %137 = load float, ptr %17, align 4, !tbaa !36
  %138 = fsub nsz float %136, %137
  %139 = load ptr, ptr %10, align 8, !tbaa !60
  %140 = getelementptr inbounds %struct.AVComplexFloat, ptr %139, i64 3
  %141 = getelementptr inbounds nuw %struct.AVComplexFloat, ptr %140, i32 0, i32 0
  store float %138, ptr %141, align 4, !tbaa !32
  %142 = load float, ptr %13, align 4, !tbaa !36
  %143 = load float, ptr %17, align 4, !tbaa !36
  %144 = fadd nsz float %142, %143
  %145 = load ptr, ptr %10, align 8, !tbaa !60
  %146 = getelementptr inbounds %struct.AVComplexFloat, ptr %145, i64 1
  %147 = getelementptr inbounds nuw %struct.AVComplexFloat, ptr %146, i32 0, i32 0
  store float %144, ptr %147, align 4, !tbaa !32
  br label %148

148:                                              ; preds = %135
  br label %149

149:                                              ; preds = %148
  br label %150

150:                                              ; preds = %149
  %151 = load float, ptr %12, align 4, !tbaa !36
  %152 = load float, ptr %15, align 4, !tbaa !36
  %153 = fsub nsz float %151, %152
  %154 = load ptr, ptr %10, align 8, !tbaa !60
  %155 = getelementptr inbounds %struct.AVComplexFloat, ptr %154, i64 2
  %156 = getelementptr inbounds nuw %struct.AVComplexFloat, ptr %155, i32 0, i32 1
  store float %153, ptr %156, align 4, !tbaa !34
  %157 = load float, ptr %12, align 4, !tbaa !36
  %158 = load float, ptr %15, align 4, !tbaa !36
  %159 = fadd nsz float %157, %158
  %160 = load ptr, ptr %10, align 8, !tbaa !60
  %161 = getelementptr inbounds %struct.AVComplexFloat, ptr %160, i64 0
  %162 = getelementptr inbounds nuw %struct.AVComplexFloat, ptr %161, i32 0, i32 1
  store float %159, ptr %162, align 4, !tbaa !34
  br label %163

163:                                              ; preds = %150
  br label %164

164:                                              ; preds = %163
  call void @llvm.lifetime.end.p0(i64 4, ptr %18) #10
  call void @llvm.lifetime.end.p0(i64 4, ptr %17) #10
  call void @llvm.lifetime.end.p0(i64 4, ptr %16) #10
  call void @llvm.lifetime.end.p0(i64 4, ptr %15) #10
  call void @llvm.lifetime.end.p0(i64 4, ptr %14) #10
  call void @llvm.lifetime.end.p0(i64 4, ptr %13) #10
  call void @llvm.lifetime.end.p0(i64 4, ptr %12) #10
  call void @llvm.lifetime.end.p0(i64 4, ptr %11) #10
  call void @llvm.lifetime.end.p0(i64 8, ptr %10) #10
  call void @llvm.lifetime.end.p0(i64 8, ptr %9) #10
  ret void
}