; Function Attrs: mustprogress nofree norecurse nosync nounwind willreturn memory(argmem: readwrite) uwtable
define internal void @ff_tx_fft4_ns_float_c(ptr readnone captures(none) %0, ptr noundef writeonly captures(none) initializes((0, 32)) %1, ptr noundef readonly captures(none) %2, i64 %3) #8 {
  %5 = load float, ptr %2, align 4, !tbaa !49
  %6 = getelementptr inbounds nuw i8, ptr %2, i64 8
  %7 = load float, ptr %6, align 4, !tbaa !49
  %8 = fsub nsz float %5, %7
  %9 = fadd nsz float %5, %7
  %10 = getelementptr inbounds nuw i8, ptr %2, i64 24
  %11 = load float, ptr %10, align 4, !tbaa !49
  %12 = getelementptr inbounds nuw i8, ptr %2, i64 16
  %13 = load float, ptr %12, align 4, !tbaa !49
  %14 = fsub nsz float %11, %13
  %15 = fadd nsz float %11, %13
  %16 = fsub nsz float %9, %15
  %17 = getelementptr inbounds nuw i8, ptr %1, i64 16
  store float %16, ptr %17, align 4, !tbaa !49
  %18 = fadd nsz float %9, %15
  store float %18, ptr %1, align 4, !tbaa !49
  %19 = getelementptr inbounds nuw i8, ptr %2, i64 4
  %20 = load float, ptr %19, align 4, !tbaa !51
  %21 = getelementptr inbounds nuw i8, ptr %2, i64 12
  %22 = load float, ptr %21, align 4, !tbaa !51
  %23 = fsub nsz float %20, %22
  %24 = fadd nsz float %20, %22
  %25 = getelementptr inbounds nuw i8, ptr %2, i64 20
  %26 = load float, ptr %25, align 4, !tbaa !51
  %27 = getelementptr inbounds nuw i8, ptr %2, i64 28
  %28 = load float, ptr %27, align 4, !tbaa !51
  %29 = fsub nsz float %26, %28
  %30 = fadd nsz float %26, %28
  %31 = fsub nsz float %23, %14
  %32 = getelementptr inbounds nuw i8, ptr %1, i64 24
  %33 = getelementptr inbounds nuw i8, ptr %1, i64 28
  store float %31, ptr %33, align 4, !tbaa !51
  %34 = fadd nsz float %14, %23
  %35 = getelementptr inbounds nuw i8, ptr %1, i64 8
  %36 = getelementptr inbounds nuw i8, ptr %1, i64 12
  store float %34, ptr %36, align 4, !tbaa !51
  %37 = fsub nsz float %8, %29
  store float %37, ptr %32, align 4, !tbaa !49
  %38 = fadd nsz float %8, %29
  store float %38, ptr %35, align 4, !tbaa !49
  %39 = fsub nsz float %24, %30
  %40 = getelementptr inbounds nuw i8, ptr %1, i64 20
  store float %39, ptr %40, align 4, !tbaa !51
  %41 = fadd nsz float %24, %30
  %42 = getelementptr inbounds nuw i8, ptr %1, i64 4
  store float %41, ptr %42, align 4, !tbaa !51
  ret void
}